target datalayout = "e-m:e-p270:32:32-p271:32:32-p272:64:64-i64:64-i128:128-f80:128-n8:16:32:64-S128"
target triple = "x86_64-pc-linux-gnu"

%struct._asn1_ctx_t = type { i32, i32, i8, ptr, ptr, ptr, ptr, ptr, %struct.anon, %struct.anon.2, %struct.anon.3, ptr }
%struct.anon = type { i32, i8, i8, i8, ptr, ptr, i32, i32, ptr, ptr, ptr, %union.anon }
%union.anon = type { %struct.anon.0 }
%struct.anon.0 = type { ptr }
%struct.anon.2 = type { ptr, ptr, ptr }
%struct.anon.3 = type { i32, i8, ptr, i32, i32, ptr, ptr, ptr, %union.anon.4 }
%union.anon.4 = type { %struct.anon.5 }
%struct.anon.5 = type { ptr }
%struct.p1_address_ctx = type { i8, ptr, i8, ptr }

@.str.4 = private unnamed_addr constant [1 x i8] zeroinitializer, align 1

; Function Attrs: null_pointer_is_valid sspstrong uwtable
define hidden ptr @p1_get_last_oraddress(ptr noundef %0) #0 {
  %2 = alloca ptr, align 8
  %3 = alloca ptr, align 8
  %4 = alloca ptr, align 8
  %5 = alloca i32, align 4
  store ptr %0, ptr %3, align 8
  call void @llvm.lifetime.start.p0(i64 8, ptr %4) #5
  %6 = load ptr, ptr %3, align 8
  %7 = icmp eq ptr %6, null
  br i1 %7, label %14, label %8

8:                                                ; preds = %1
  %9 = load ptr, ptr %3, align 8
  %10 = getelementptr inbounds nuw %struct._asn1_ctx_t, ptr %9, i32 0, i32 9
  %11 = getelementptr inbounds nuw %struct.anon.2, ptr %10, i32 0, i32 2
  %12 = load ptr, ptr %11, align 8
  %13 = icmp eq ptr %12, null
  br i1 %13, label %14, label %15

14:                                               ; preds = %8, %1
  store ptr @.str.4, ptr %2, align 8
  store i32 1, ptr %5, align 4
  br label %31

15:                                               ; preds = %8
  %16 = load ptr, ptr %3, align 8
  %17 = getelementptr inbounds nuw %struct._asn1_ctx_t, ptr %16, i32 0, i32 9
  %18 = getelementptr inbounds nuw %struct.anon.2, ptr %17, i32 0, i32 2
  %19 = load ptr, ptr %18, align 8
  store ptr %19, ptr %4, align 8
  %20 = load ptr, ptr %4, align 8
  %21 = getelementptr inbounds nuw %struct.p1_address_ctx, ptr %20, i32 0, i32 3
  %22 = load ptr, ptr %21, align 8
  %23 = call i64 @wmem_strbuf_get_len(ptr noundef %22)
  %24 = icmp ule i64 %23, 0
  br i1 %24, label %25, label %26

25:                                               ; preds = %15
  store ptr @.str.4, ptr %2, align 8
  store i32 1, ptr %5, align 4
  br label %31

26:                                               ; preds = %15
  %27 = load ptr, ptr %4, align 8
  %28 = getelementptr inbounds nuw %struct.p1_address_ctx, ptr %27, i32 0, i32 3
  %29 = load ptr, ptr %28, align 8
  %30 = call ptr @wmem_strbuf_get_str(ptr noundef %29)
  store ptr %30, ptr %2, align 8
  store i32 1, ptr %5, align 4
  br label %31

31:                                               ; preds = %26, %25, %14
  call void @llvm.lifetime.end.p0(i64 8, ptr %4) #5
  %32 = load ptr, ptr %2, align 8
  ret ptr %32
}