; Function Attrs: null_pointer_is_valid sspstrong uwtable
define hidden ptr @p1_get_last_oraddress(ptr noundef readonly captures(address_is_null) %0) local_unnamed_addr #0 {
  %2 = icmp eq ptr %0, null
  br i1 %2, label %15, label %3

3:                                                ; preds = %1
  %4 = getelementptr inbounds nuw i8, ptr %0, i64 136
  %5 = load ptr, ptr %4, align 8
  %6 = icmp eq ptr %5, null
  br i1 %6, label %15, label %7

7:                                                ; preds = %3
  %8 = getelementptr inbounds nuw i8, ptr %5, i64 24
  %9 = load ptr, ptr %8, align 8
  %10 = tail call i64 @wmem_strbuf_get_len(ptr noundef %9)
  %11 = icmp eq i64 %10, 0
  br i1 %11, label %15, label %12

12:                                               ; preds = %7
  %13 = load ptr, ptr %8, align 8
  %14 = tail call ptr @wmem_strbuf_get_str(ptr noundef %13)
  br label %15

15:                                               ; preds = %7, %1, %3, %12
  %.0 = phi ptr [ %14, %12 ], [ @.str.4, %3 ], [ @.str.4, %1 ], [ @.str.4, %7 ]
  ret ptr %.0
}